target datalayout = "e-m:e-p270:32:32-p271:32:32-p272:64:64-i64:64-i128:128-f80:128-n8:16:32:64-S128"
target triple = "x86_64-pc-linux-gnu"

%struct.FxuMatrix = type { %struct.FxuListCube, %struct.FxuListVar, ptr, ptr, i32, i32, i32, ptr, %struct.FxuListSingle, ptr, i32, i32, ptr, ptr, ptr, ptr, ptr, ptr, ptr, i32, i32, i32, i32, ptr }
%struct.FxuListCube = type { ptr, ptr, i32 }
%struct.FxuListVar = type { ptr, ptr, i32 }
%struct.FxuListSingle = type { ptr, ptr, i32 }
%struct.FxuVar = type { i32, i32, ptr, ptr, %struct.FxuListLit, ptr, ptr, ptr }
%struct.FxuListLit = type { ptr, ptr, i32 }
%struct.FxuLit = type { i32, i32, ptr, ptr, ptr, ptr, ptr, ptr }
%struct.FxuCube = type { i32, ptr, ptr, %struct.FxuListLit, ptr, ptr, ptr }

; Function Attrs: nounwind uwtable
define i32 @Fxu_SingleCountCoincidence(ptr noundef %0, ptr noundef %1, ptr noundef %2) #0 {
  %4 = alloca ptr, align 8
  %5 = alloca ptr, align 8
  %6 = alloca ptr, align 8
  %7 = alloca ptr, align 8
  %8 = alloca ptr, align 8
  %9 = alloca i32, align 4
  store ptr %0, ptr %4, align 8, !tbaa !3
  store ptr %1, ptr %5, align 8, !tbaa !29
  store ptr %2, ptr %6, align 8, !tbaa !29
  call void @llvm.lifetime.start.p0(i64 8, ptr %7) #8
  call void @llvm.lifetime.start.p0(i64 8, ptr %8) #8
  call void @llvm.lifetime.start.p0(i64 4, ptr %9) #8
  store i32 0, ptr %9, align 4, !tbaa !8
  %10 = load ptr, ptr %5, align 8, !tbaa !29
  %11 = getelementptr inbounds nuw %struct.FxuVar, ptr %10, i32 0, i32 4
  %12 = getelementptr inbounds nuw %struct.FxuListLit, ptr %11, i32 0, i32 0
  %13 = load ptr, ptr %12, align 8, !tbaa !49
  store ptr %13, ptr %7, align 8, !tbaa !50
  %14 = load ptr, ptr %6, align 8, !tbaa !29
  %15 = getelementptr inbounds nuw %struct.FxuVar, ptr %14, i32 0, i32 4
  %16 = getelementptr inbounds nuw %struct.FxuListLit, ptr %15, i32 0, i32 0
  %17 = load ptr, ptr %16, align 8, !tbaa !49
  store ptr %17, ptr %8, align 8, !tbaa !50
  br label %18

18:                                               ; preds = %125, %3
  br label %19

19:                                               ; preds = %18
  %20 = load ptr, ptr %7, align 8, !tbaa !50
  %21 = icmp ne ptr %20, null
  br i1 %21, label %22, label %102

22:                                               ; preds = %19
  %23 = load ptr, ptr %8, align 8, !tbaa !50
  %24 = icmp ne ptr %23, null
  br i1 %24, label %25, label %102

25:                                               ; preds = %22
  %26 = load ptr, ptr %7, align 8, !tbaa !50
  %27 = getelementptr inbounds nuw %struct.FxuLit, ptr %26, i32 0, i32 2
  %28 = load ptr, ptr %27, align 8, !tbaa !63
  %29 = getelementptr inbounds nuw %struct.FxuCube, ptr %28, i32 0, i32 2
  %30 = load ptr, ptr %29, align 8, !tbaa !64
  %31 = getelementptr inbounds nuw %struct.FxuVar, ptr %30, i32 0, i32 0
  %32 = load i32, ptr %31, align 8, !tbaa !66
  %33 = load ptr, ptr %8, align 8, !tbaa !50
  %34 = getelementptr inbounds nuw %struct.FxuLit, ptr %33, i32 0, i32 2
  %35 = load ptr, ptr %34, align 8, !tbaa !63
  %36 = getelementptr inbounds nuw %struct.FxuCube, ptr %35, i32 0, i32 2
  %37 = load ptr, ptr %36, align 8, !tbaa !64
  %38 = getelementptr inbounds nuw %struct.FxuVar, ptr %37, i32 0, i32 0
  %39 = load i32, ptr %38, align 8, !tbaa !66
  %40 = icmp eq i32 %32, %39
  br i1 %40, label %41, label %76

41:                                               ; preds = %25
  %42 = load ptr, ptr %7, align 8, !tbaa !50
  %43 = getelementptr inbounds nuw %struct.FxuLit, ptr %42, i32 0, i32 1
  %44 = load i32, ptr %43, align 4, !tbaa !67
  %45 = load ptr, ptr %8, align 8, !tbaa !50
  %46 = getelementptr inbounds nuw %struct.FxuLit, ptr %45, i32 0, i32 1
  %47 = load i32, ptr %46, align 4, !tbaa !67
  %48 = icmp eq i32 %44, %47
  br i1 %48, label %49, label %58

49:                                               ; preds = %41
  %50 = load ptr, ptr %7, align 8, !tbaa !50
  %51 = getelementptr inbounds nuw %struct.FxuLit, ptr %50, i32 0, i32 7
  %52 = load ptr, ptr %51, align 8, !tbaa !56
  store ptr %52, ptr %7, align 8, !tbaa !50
  %53 = load ptr, ptr %8, align 8, !tbaa !50
  %54 = getelementptr inbounds nuw %struct.FxuLit, ptr %53, i32 0, i32 7
  %55 = load ptr, ptr %54, align 8, !tbaa !56
  store ptr %55, ptr %8, align 8, !tbaa !50
  %56 = load i32, ptr %9, align 4, !tbaa !8
  %57 = add nsw i32 %56, 1
  store i32 %57, ptr %9, align 4, !tbaa !8
  br label %75

58:                                               ; preds = %41
  %59 = load ptr, ptr %7, align 8, !tbaa !50
  %60 = getelementptr inbounds nuw %struct.FxuLit, ptr %59, i32 0, i32 1
  %61 = load i32, ptr %60, align 4, !tbaa !67
  %62 = load ptr, ptr %8, align 8, !tbaa !50
  %63 = getelementptr inbounds nuw %struct.FxuLit, ptr %62, i32 0, i32 1
  %64 = load i32, ptr %63, align 4, !tbaa !67
  %65 = icmp slt i32 %61, %64
  br i1 %65, label %66, label %70

66:                                               ; preds = %58
  %67 = load ptr, ptr %7, align 8, !tbaa !50
  %68 = getelementptr inbounds nuw %struct.FxuLit, ptr %67, i32 0, i32 7
  %69 = load ptr, ptr %68, align 8, !tbaa !56
  store ptr %69, ptr %7, align 8, !tbaa !50
  br label %74

70:                                               ; preds = %58
  %71 = load ptr, ptr %8, align 8, !tbaa !50
  %72 = getelementptr inbounds nuw %struct.FxuLit, ptr %71, i32 0, i32 7
  %73 = load ptr, ptr %72, align 8, !tbaa !56
  store ptr %73, ptr %8, align 8, !tbaa !50
  br label %74

74:                                               ; preds = %70, %66
  br label %75

75:                                               ; preds = %74, %49
  br label %101

76:                                               ; preds = %25
  %77 = load ptr, ptr %7, align 8, !tbaa !50
  %78 = getelementptr inbounds nuw %struct.FxuLit, ptr %77, i32 0, i32 2
  %79 = load ptr, ptr %78, align 8, !tbaa !63
  %80 = getelementptr inbounds nuw %struct.FxuCube, ptr %79, i32 0, i32 2
  %81 = load ptr, ptr %80, align 8, !tbaa !64
  %82 = getelementptr inbounds nuw %struct.FxuVar, ptr %81, i32 0, i32 0
  %83 = load i32, ptr %82, align 8, !tbaa !66
  %84 = load ptr, ptr %8, align 8, !tbaa !50
  %85 = getelementptr inbounds nuw %struct.FxuLit, ptr %84, i32 0, i32 2
  %86 = load ptr, ptr %85, align 8, !tbaa !63
  %87 = getelementptr inbounds nuw %struct.FxuCube, ptr %86, i32 0, i32 2
  %88 = load ptr, ptr %87, align 8, !tbaa !64
  %89 = getelementptr inbounds nuw %struct.FxuVar, ptr %88, i32 0, i32 0
  %90 = load i32, ptr %89, align 8, !tbaa !66
  %91 = icmp slt i32 %83, %90
  br i1 %91, label %92, label %96

92:                                               ; preds = %76
  %93 = load ptr, ptr %7, align 8, !tbaa !50
  %94 = getelementptr inbounds nuw %struct.FxuLit, ptr %93, i32 0, i32 7
  %95 = load ptr, ptr %94, align 8, !tbaa !56
  store ptr %95, ptr %7, align 8, !tbaa !50
  br label %100

96:                                               ; preds = %76
  %97 = load ptr, ptr %8, align 8, !tbaa !50
  %98 = getelementptr inbounds nuw %struct.FxuLit, ptr %97, i32 0, i32 7
  %99 = load ptr, ptr %98, align 8, !tbaa !56
  store ptr %99, ptr %8, align 8, !tbaa !50
  br label %100

100:                                              ; preds = %96, %92
  br label %101

101:                                              ; preds = %100, %75
  br label %125

102:                                              ; preds = %22, %19
  %103 = load ptr, ptr %7, align 8, !tbaa !50
  %104 = icmp ne ptr %103, null
  br i1 %104, label %105, label %112

105:                                              ; preds = %102
  %106 = load ptr, ptr %8, align 8, !tbaa !50
  %107 = icmp ne ptr %106, null
  br i1 %107, label %112, label %108

108:                                              ; preds = %105
  %109 = load ptr, ptr %7, align 8, !tbaa !50
  %110 = getelementptr inbounds nuw %struct.FxuLit, ptr %109, i32 0, i32 7
  %111 = load ptr, ptr %110, align 8, !tbaa !56
  store ptr %111, ptr %7, align 8, !tbaa !50
  br label %124

112:                                              ; preds = %105, %102
  %113 = load ptr, ptr %7, align 8, !tbaa !50
  %114 = icmp ne ptr %113, null
  br i1 %114, label %122, label %115

115:                                              ; preds = %112
  %116 = load ptr, ptr %8, align 8, !tbaa !50
  %117 = icmp ne ptr %116, null
  br i1 %117, label %118, label %122

118:                                              ; preds = %115
  %119 = load ptr, ptr %8, align 8, !tbaa !50
  %120 = getelementptr inbounds nuw %struct.FxuLit, ptr %119, i32 0, i32 7
  %121 = load ptr, ptr %120, align 8, !tbaa !56
  store ptr %121, ptr %8, align 8, !tbaa !50
  br label %123

122:                                              ; preds = %115, %112
  br label %126

123:                                              ; preds = %118
  br label %124

124:                                              ; preds = %123, %108
  br label %125

125:                                              ; preds = %124, %101
  br label %18

126:                                              ; preds = %122
  %127 = load i32, ptr %9, align 4, !tbaa !8
  call void @llvm.lifetime.end.p0(i64 4, ptr %9) #8
  call void @llvm.lifetime.end.p0(i64 8, ptr %8) #8
  call void @llvm.lifetime.end.p0(i64 8, ptr %7) #8
  ret i32 %127
}

; Function Attrs: nounwind uwtable
define void @Fxu_MatrixComputeSinglesOne(ptr noundef %0, ptr noundef %1) #0 {
  %3 = alloca ptr, align 8
  %4 = alloca ptr, align 8
  %5 = alloca ptr, align 8
  %6 = alloca ptr, align 8
  %7 = alloca ptr, align 8
  %8 = alloca i32, align 4
  %9 = alloca i32, align 4
  store ptr %0, ptr %3, align 8, !tbaa !3
  store ptr %1, ptr %4, align 8, !tbaa !29
  call void @llvm.lifetime.start.p0(i64 8, ptr %5) #8
  call void @llvm.lifetime.start.p0(i64 8, ptr %6) #8
  call void @llvm.lifetime.start.p0(i64 8, ptr %7) #8
  call void @llvm.lifetime.start.p0(i64 4, ptr %8) #8
  call void @llvm.lifetime.start.p0(i64 4, ptr %9) #8
  %10 = load ptr, ptr %3, align 8, !tbaa !3
  %11 = getelementptr inbounds nuw %struct.FxuMatrix, ptr %10, i32 0, i32 16
  %12 = load ptr, ptr %3, align 8, !tbaa !3
  %13 = getelementptr inbounds nuw %struct.FxuMatrix, ptr %12, i32 0, i32 17
  store ptr %11, ptr %13, align 8, !tbaa !47
  %14 = load ptr, ptr %3, align 8, !tbaa !3
  %15 = getelementptr inbounds nuw %struct.FxuMatrix, ptr %14, i32 0, i32 16
  store ptr null, ptr %15, align 8, !tbaa !48
  %16 = load ptr, ptr %4, align 8, !tbaa !29
  %17 = getelementptr inbounds nuw %struct.FxuVar, ptr %16, i32 0, i32 4
  %18 = getelementptr inbounds nuw %struct.FxuListLit, ptr %17, i32 0, i32 0
  %19 = load ptr, ptr %18, align 8, !tbaa !49
  store ptr %19, ptr %5, align 8, !tbaa !50
  br label %20

20:                                               ; preds = %55, %2
  %21 = load ptr, ptr %5, align 8, !tbaa !50
  %22 = icmp ne ptr %21, null
  br i1 %22, label %23, label %59

23:                                               ; preds = %20
  %24 = load ptr, ptr %5, align 8, !tbaa !50
  %25 = getelementptr inbounds nuw %struct.FxuLit, ptr %24, i32 0, i32 4
  %26 = load ptr, ptr %25, align 8, !tbaa !51
  store ptr %26, ptr %6, align 8, !tbaa !50
  br label %27

27:                                               ; preds = %50, %23
  %28 = load ptr, ptr %6, align 8, !tbaa !50
  %29 = icmp ne ptr %28, null
  br i1 %29, label %30, label %54

30:                                               ; preds = %27
  %31 = load ptr, ptr %6, align 8, !tbaa !50
  %32 = getelementptr inbounds nuw %struct.FxuLit, ptr %31, i32 0, i32 3
  %33 = load ptr, ptr %32, align 8, !tbaa !53
  store ptr %33, ptr %7, align 8, !tbaa !29
  %34 = load ptr, ptr %7, align 8, !tbaa !29
  %35 = getelementptr inbounds nuw %struct.FxuVar, ptr %34, i32 0, i32 7
  %36 = load ptr, ptr %35, align 8, !tbaa !54
  %37 = icmp ne ptr %36, null
  br i1 %37, label %38, label %39

38:                                               ; preds = %30
  br label %50

39:                                               ; preds = %30
  %40 = load ptr, ptr %7, align 8, !tbaa !29
  %41 = load ptr, ptr %3, align 8, !tbaa !3
  %42 = getelementptr inbounds nuw %struct.FxuMatrix, ptr %41, i32 0, i32 17
  %43 = load ptr, ptr %42, align 8, !tbaa !47
  store ptr %40, ptr %43, align 8, !tbaa !29
  %44 = load ptr, ptr %7, align 8, !tbaa !29
  %45 = getelementptr inbounds nuw %struct.FxuVar, ptr %44, i32 0, i32 7
  %46 = load ptr, ptr %3, align 8, !tbaa !3
  %47 = getelementptr inbounds nuw %struct.FxuMatrix, ptr %46, i32 0, i32 17
  store ptr %45, ptr %47, align 8, !tbaa !47
  %48 = load ptr, ptr %7, align 8, !tbaa !29
  %49 = getelementptr inbounds nuw %struct.FxuVar, ptr %48, i32 0, i32 7
  store ptr inttoptr (i64 1 to ptr), ptr %49, align 8, !tbaa !54
  br label %50

50:                                               ; preds = %39, %38
  %51 = load ptr, ptr %6, align 8, !tbaa !50
  %52 = getelementptr inbounds nuw %struct.FxuLit, ptr %51, i32 0, i32 4
  %53 = load ptr, ptr %52, align 8, !tbaa !51
  store ptr %53, ptr %6, align 8, !tbaa !50
  br label %27, !llvm.loop !60

54:                                               ; preds = %27
  br label %55

55:                                               ; preds = %54
  %56 = load ptr, ptr %5, align 8, !tbaa !50
  %57 = getelementptr inbounds nuw %struct.FxuLit, ptr %56, i32 0, i32 7
  %58 = load ptr, ptr %57, align 8, !tbaa !56
  store ptr %58, ptr %5, align 8, !tbaa !50
  br label %20, !llvm.loop !61

59:                                               ; preds = %20
  %60 = load ptr, ptr %3, align 8, !tbaa !3
  %61 = getelementptr inbounds nuw %struct.FxuMatrix, ptr %60, i32 0, i32 16
  %62 = load ptr, ptr %61, align 8, !tbaa !48
  %63 = icmp ne ptr %62, null
  br i1 %63, label %64, label %94

64:                                               ; preds = %59
  %65 = load ptr, ptr %3, align 8, !tbaa !3
  %66 = getelementptr inbounds nuw %struct.FxuMatrix, ptr %65, i32 0, i32 16
  %67 = load ptr, ptr %66, align 8, !tbaa !48
  store ptr %67, ptr %7, align 8, !tbaa !29
  br label %68

68:                                               ; preds = %89, %64
  %69 = load ptr, ptr %7, align 8, !tbaa !29
  %70 = icmp ne ptr %69, inttoptr (i64 1 to ptr)
  br i1 %70, label %71, label %93

71:                                               ; preds = %68
  %72 = load ptr, ptr %3, align 8, !tbaa !3
  %73 = load ptr, ptr %7, align 8, !tbaa !29
  %74 = load ptr, ptr %4, align 8, !tbaa !29
  %75 = call i32 @Fxu_SingleCountCoincidence(ptr noundef %72, ptr noundef %73, ptr noundef %74)
  store i32 %75, ptr %8, align 4, !tbaa !8
  %76 = load i32, ptr %8, align 4, !tbaa !8
  %77 = sub nsw i32 %76, 2
  store i32 %77, ptr %9, align 4, !tbaa !8
  %78 = load i32, ptr %9, align 4, !tbaa !8
  %79 = load ptr, ptr %3, align 8, !tbaa !3
  %80 = getelementptr inbounds nuw %struct.FxuMatrix, ptr %79, i32 0, i32 10
  %81 = load i32, ptr %80, align 8, !tbaa !10
  %82 = icmp sge i32 %78, %81
  br i1 %82, label %83, label %88

83:                                               ; preds = %71
  %84 = load ptr, ptr %3, align 8, !tbaa !3
  %85 = load ptr, ptr %7, align 8, !tbaa !29
  %86 = load ptr, ptr %4, align 8, !tbaa !29
  %87 = load i32, ptr %9, align 4, !tbaa !8
  call void @Fxu_MatrixAddSingle(ptr noundef %84, ptr noundef %85, ptr noundef %86, i32 noundef %87)
  br label %88

88:                                               ; preds = %83, %71
  br label %89

89:                                               ; preds = %88
  %90 = load ptr, ptr %7, align 8, !tbaa !29
  %91 = getelementptr inbounds nuw %struct.FxuVar, ptr %90, i32 0, i32 7
  %92 = load ptr, ptr %91, align 8, !tbaa !54
  store ptr %92, ptr %7, align 8, !tbaa !29
  br label %68, !llvm.loop !62

93:                                               ; preds = %68
  br label %94

94:                                               ; preds = %93, %59
  %95 = load ptr, ptr %3, align 8, !tbaa !3
  call void @Fxu_MatrixRingVarsUnmark(ptr noundef %95)
  call void @llvm.lifetime.end.p0(i64 4, ptr %9) #8
  call void @llvm.lifetime.end.p0(i64 4, ptr %8) #8
  call void @llvm.lifetime.end.p0(i64 8, ptr %7) #8
  call void @llvm.lifetime.end.p0(i64 8, ptr %6) #8
  call void @llvm.lifetime.end.p0(i64 8, ptr %5) #8
  ret void
}