; Function Attrs: nounwind uwtable
define void @Fxu_MatrixComputeSinglesOne(ptr noundef %0, ptr noundef %1) local_unnamed_addr #0 {
  %3 = getelementptr inbounds nuw i8, ptr %0, i64 160
  %4 = getelementptr inbounds nuw i8, ptr %0, i64 168
  store ptr %3, ptr %4, align 8, !tbaa !29
  store ptr null, ptr %3, align 8, !tbaa !30
  %5 = getelementptr inbounds nuw i8, ptr %1, i64 24
  %.044 = load ptr, ptr %5, align 8, !tbaa !31
  %.not45 = icmp eq ptr %.044, null
  br i1 %.not45, label %.loopexit, label %.preheader39

.preheader39:                                     ; preds = %2, %._crit_edge
  %6 = phi ptr [ %15, %._crit_edge ], [ %3, %2 ]
  %.046 = phi ptr [ %.0, %._crit_edge ], [ %.044, %2 ]
  %.030.in40 = getelementptr inbounds nuw i8, ptr %.046, i64 24
  %.03041 = load ptr, ptr %.030.in40, align 8, !tbaa !33
  %.not3742 = icmp eq ptr %.03041, null
  br i1 %.not3742, label %._crit_edge, label %.lr.ph

.lr.ph:                                           ; preds = %.preheader39, %13
  %7 = phi ptr [ %14, %13 ], [ %6, %.preheader39 ]
  %.03043 = phi ptr [ %.030, %13 ], [ %.03041, %.preheader39 ]
  %8 = getelementptr inbounds nuw i8, ptr %.03043, i64 16
  %9 = load ptr, ptr %8, align 8, !tbaa !35
  %10 = getelementptr inbounds nuw i8, ptr %9, i64 64
  %11 = load ptr, ptr %10, align 8, !tbaa !36
  %.not38 = icmp eq ptr %11, null
  br i1 %.not38, label %12, label %13

12:                                               ; preds = %.lr.ph
  store ptr %9, ptr %7, align 8, !tbaa !28
  store ptr %10, ptr %4, align 8, !tbaa !29
  store ptr inttoptr (i64 1 to ptr), ptr %10, align 8, !tbaa !36
  br label %13

13:                                               ; preds = %.lr.ph, %12
  %14 = phi ptr [ %7, %.lr.ph ], [ %10, %12 ]
  %.030.in = getelementptr inbounds nuw i8, ptr %.03043, i64 24
  %.030 = load ptr, ptr %.030.in, align 8, !tbaa !33
  %.not37 = icmp eq ptr %.030, null
  br i1 %.not37, label %._crit_edge, label %.lr.ph, !llvm.loop !57

._crit_edge:                                      ; preds = %13, %.preheader39
  %15 = phi ptr [ %6, %.preheader39 ], [ %14, %13 ]
  %16 = getelementptr inbounds nuw i8, ptr %.046, i64 48
  %.0 = load ptr, ptr %16, align 8, !tbaa !31
  %.not = icmp eq ptr %.0, null
  br i1 %.not, label %._crit_edge47, label %.preheader39, !llvm.loop !58

._crit_edge47:                                    ; preds = %._crit_edge
  %.pre = load ptr, ptr %3, align 8, !tbaa !30
  %switch = icmp ult ptr %.pre, inttoptr (i64 2 to ptr)
  br i1 %switch, label %.loopexit, label %.lr.ph50

.lr.ph50:                                         ; preds = %._crit_edge47
  %17 = getelementptr inbounds nuw i8, ptr %0, i64 120
  br label %18

18:                                               ; preds = %.lr.ph50, %67
  %.03149 = phi ptr [ %.pre, %.lr.ph50 ], [ %69, %67 ]
  %19 = getelementptr inbounds nuw i8, ptr %.03149, i64 24
  br label %.outer.outer

.outer.outer:                                     ; preds = %18, %41
  %.032.i.ph.ph.in = phi ptr [ %19, %18 ], [ %42, %41 ]
  %.030.i.ph.ph.in = phi ptr [ %5, %18 ], [ %43, %41 ]
  %.0.i.ph.ph = phi i32 [ 0, %18 ], [ %44, %41 ]
  %.030.i.ph.ph = load ptr, ptr %.030.i.ph.ph.in, align 8, !tbaa !31
  %.032.i.ph.ph = load ptr, ptr %.032.i.ph.ph.in, align 8, !tbaa !31
  br label %.outer

.outer:                                           ; preds = %.outer.backedge, %.outer.outer
  %.032.i.ph = phi ptr [ %.032.i.ph.ph, %.outer.outer ], [ %.032.i.ph.be, %.outer.backedge ]
  %.030.i.ph = phi ptr [ %.030.i.ph.ph, %.outer.outer ], [ %.030.i.ph.be, %.outer.backedge ]
  %20 = icmp ne ptr %.032.i.ph, null
  %21 = getelementptr inbounds nuw i8, ptr %.032.i.ph, i64 8
  %22 = getelementptr inbounds nuw i8, ptr %.032.i.ph, i64 4
  br label %23

23:                                               ; preds = %.backedge, %.outer
  %.030.i = phi ptr [ %.030.i.ph, %.outer ], [ %.030.i.be, %.backedge ]
  %24 = icmp ne ptr %.030.i, null
  %or.cond.i = select i1 %20, i1 %24, i1 false
  br i1 %or.cond.i, label %25, label %55

25:                                               ; preds = %23
  %26 = load ptr, ptr %21, align 8, !tbaa !42
  %27 = getelementptr inbounds nuw i8, ptr %26, i64 16
  %28 = load ptr, ptr %27, align 8, !tbaa !43
  %29 = load i32, ptr %28, align 8, !tbaa !45
  %30 = getelementptr inbounds nuw i8, ptr %.030.i, i64 8
  %31 = load ptr, ptr %30, align 8, !tbaa !42
  %32 = getelementptr inbounds nuw i8, ptr %31, i64 16
  %33 = load ptr, ptr %32, align 8, !tbaa !43
  %34 = load i32, ptr %33, align 8, !tbaa !45
  %35 = icmp eq i32 %29, %34
  br i1 %35, label %36, label %50

36:                                               ; preds = %25
  %37 = load i32, ptr %22, align 4, !tbaa !46
  %38 = getelementptr inbounds nuw i8, ptr %.030.i, i64 4
  %39 = load i32, ptr %38, align 4, !tbaa !46
  %40 = icmp eq i32 %37, %39
  br i1 %40, label %41, label %45

41:                                               ; preds = %36
  %42 = getelementptr inbounds nuw i8, ptr %.032.i.ph, i64 48
  %43 = getelementptr inbounds nuw i8, ptr %.030.i, i64 48
  %44 = add nuw nsw i32 %.0.i.ph.ph, 1
  br label %.outer.outer

45:                                               ; preds = %36
  %46 = icmp slt i32 %37, %39
  br i1 %46, label %47, label %.backedge

47:                                               ; preds = %45
  %48 = getelementptr inbounds nuw i8, ptr %.032.i.ph, i64 48
  %49 = load ptr, ptr %48, align 8, !tbaa !47
  br label %.outer.backedge

.outer.backedge:                                  ; preds = %47, %52, %61, %57
  %.032.i.ph.be = phi ptr [ %59, %57 ], [ null, %61 ], [ %54, %52 ], [ %49, %47 ]
  %.030.i.ph.be = phi ptr [ null, %57 ], [ %63, %61 ], [ %.030.i, %52 ], [ %.030.i, %47 ]
  br label %.outer

50:                                               ; preds = %25
  %51 = icmp slt i32 %29, %34
  br i1 %51, label %52, label %.backedge

52:                                               ; preds = %50
  %53 = getelementptr inbounds nuw i8, ptr %.032.i.ph, i64 48
  %54 = load ptr, ptr %53, align 8, !tbaa !47
  br label %.outer.backedge

.backedge:                                        ; preds = %50, %45
  %.030.i.be.in = getelementptr inbounds nuw i8, ptr %.030.i, i64 48
  %.030.i.be = load ptr, ptr %.030.i.be.in, align 8, !tbaa !47
  br label %23

55:                                               ; preds = %23
  %56 = icmp eq ptr %.032.i.ph, null
  %or.cond3.i = select i1 %56, i1 true, i1 %24
  br i1 %or.cond3.i, label %60, label %57

57:                                               ; preds = %55
  %58 = getelementptr inbounds nuw i8, ptr %.032.i.ph, i64 48
  %59 = load ptr, ptr %58, align 8, !tbaa !47
  br label %.outer.backedge

60:                                               ; preds = %55
  %or.cond5.i = select i1 %56, i1 %24, i1 false
  br i1 %or.cond5.i, label %61, label %Fxu_SingleCountCoincidence.exit

61:                                               ; preds = %60
  %62 = getelementptr inbounds nuw i8, ptr %.030.i, i64 48
  %63 = load ptr, ptr %62, align 8, !tbaa !47
  br label %.outer.backedge

Fxu_SingleCountCoincidence.exit:                  ; preds = %60
  %64 = add nsw i32 %.0.i.ph.ph, -2
  %65 = load i32, ptr %17, align 8, !tbaa !3
  %.not36 = icmp slt i32 %64, %65
  br i1 %.not36, label %67, label %66

66:                                               ; preds = %Fxu_SingleCountCoincidence.exit
  tail call void @Fxu_MatrixAddSingle(ptr noundef nonnull %0, ptr noundef %.03149, ptr noundef %1, i32 noundef %64) #9
  br label %67

67:                                               ; preds = %Fxu_SingleCountCoincidence.exit, %66
  %68 = getelementptr inbounds nuw i8, ptr %.03149, i64 64
  %69 = load ptr, ptr %68, align 8, !tbaa !36
  %.not35 = icmp eq ptr %69, inttoptr (i64 1 to ptr)
  br i1 %.not35, label %.loopexit, label %18, !llvm.loop !59

.loopexit:                                        ; preds = %67, %2, %._crit_edge47
  tail call void @Fxu_MatrixRingVarsUnmark(ptr noundef nonnull %0) #9
  ret void
}